; Function Attrs: nofree norecurse nosync nounwind memory(none) uwtable
define i32 @ff_t_sqrt(i32 noundef %0) local_unnamed_addr #7 {
  %2 = icmp ugt i32 %0, 4095
  br i1 %2, label %.lr.ph, label %._crit_edge

.lr.ph:                                           ; preds = %1, %.lr.ph
  %.07 = phi i32 [ %3, %.lr.ph ], [ 2, %1 ]
  %.056 = phi i32 [ %4, %.lr.ph ], [ %0, %1 ]
  %3 = add nuw nsw i32 %.07, 1
  %4 = lshr i32 %.056, 2
  %5 = icmp ugt i32 %.056, 16383
  br i1 %5, label %.lr.ph, label %._crit_edge, !llvm.loop !18

._crit_edge:                                      ; preds = %.lr.ph, %1
  %.05.lcssa = phi i32 [ %0, %1 ], [ %4, %.lr.ph ]
  %.0.lcssa = phi i32 [ 2, %1 ], [ %3, %.lr.ph ]
  %6 = icmp eq i32 %.05.lcssa, 0
  br i1 %6, label %7, label %12

7:                                                ; preds = %._crit_edge
  %8 = load i8, ptr getelementptr inbounds nuw (i8, ptr @ff_sqrt_tab, i64 1), align 1, !tbaa !19
  %9 = zext i8 %8 to i32
  %10 = add nsw i32 %9, -1
  %11 = ashr i32 %10, 4
  br label %ff_sqrt.exit

12:                                               ; preds = %._crit_edge
  %13 = shl nuw i32 %.05.lcssa, 20
  %.not.i.i = icmp samesign ult i32 %.05.lcssa, 16
  %spec.select.i.v.i = select i1 %.not.i.i, i32 16, i32 24
  %spec.select.i.i = lshr i32 %13, %spec.select.i.v.i
  %spec.select7.i.i = select i1 %.not.i.i, i32 0, i32 8
  %14 = zext nneg i32 %spec.select.i.i to i64
  %15 = getelementptr inbounds nuw [256 x i8], ptr @ff_log2_tab, i64 0, i64 %14
  %16 = load i8, ptr %15, align 1, !tbaa !19
  %17 = zext i8 %16 to i32
  %18 = add nuw nsw i32 %spec.select7.i.i, %17
  %19 = lshr i32 %18, 1
  %20 = add nuw nsw i32 %19, 2
  %21 = lshr i32 %13, %20
  %22 = add nuw nsw i32 %19, 8
  %23 = lshr i32 %21, %22
  %24 = zext nneg i32 %23 to i64
  %25 = getelementptr inbounds nuw [256 x i8], ptr @ff_sqrt_tab, i64 0, i64 %24
  %26 = load i8, ptr %25, align 1, !tbaa !19
  %27 = zext i8 %26 to i32
  %28 = zext nneg i32 %21 to i64
  %29 = zext i8 %26 to i64
  %30 = getelementptr inbounds nuw [257 x i32], ptr @ff_inverse, i64 0, i64 %29
  %31 = load i32, ptr %30, align 4, !tbaa !8
  %32 = zext i32 %31 to i64
  %33 = mul nuw nsw i64 %28, %32
  %34 = lshr i64 %33, 32
  %35 = trunc nuw nsw i64 %34 to i32
  %36 = shl i32 %27, %19
  %37 = add i32 %36, %35
  %38 = mul i32 %37, %37
  %39 = icmp ult i32 %13, %38
  %.neg.i = sext i1 %39 to i32
  %40 = add i32 %37, %.neg.i
  br label %ff_sqrt.exit

ff_sqrt.exit:                                     ; preds = %7, %12
  %.0.i = phi i32 [ %11, %7 ], [ %40, %12 ]
  %41 = shl i32 %.0.i, %.0.lcssa
  ret i32 %41
}